target datalayout = "e-m:e-p270:32:32-p271:32:32-p272:64:64-i64:64-i128:128-f80:128-n8:16:32:64-S128"
target triple = "x86_64-pc-linux-gnu"

%"class.draco::DataBuffer" = type { %"class.std::vector", %"struct.draco::DataBufferDescriptor" }
%"class.std::vector" = type { %"struct.std::_Vector_base" }
%"struct.std::_Vector_base" = type { %"struct.std::_Vector_base<unsigned char, std::allocator<unsigned char>>::_Vector_impl" }
%"struct.std::_Vector_base<unsigned char, std::allocator<unsigned char>>::_Vector_impl" = type { %"struct.std::_Vector_base<unsigned char, std::allocator<unsigned char>>::_Vector_impl_data" }
%"struct.std::_Vector_base<unsigned char, std::allocator<unsigned char>>::_Vector_impl_data" = type { ptr, ptr, ptr }
%"struct.draco::DataBufferDescriptor" = type { i64, i64 }

; Function Attrs: mustprogress nounwind uwtable
define linkonce_odr noundef ptr @_ZNSt11__copy_moveILb0ELb1ESt26random_access_iterator_tagE8__copy_mIhEEPT_PKS3_S6_S4_(ptr noundef %0, ptr noundef %1, ptr noundef %2) #1 comdat align 2 {
  %4 = alloca ptr, align 8
  %5 = alloca ptr, align 8
  %6 = alloca ptr, align 8
  %7 = alloca i64, align 8
  store ptr %0, ptr %4, align 8, !tbaa !22
  store ptr %1, ptr %5, align 8, !tbaa !22
  store ptr %2, ptr %6, align 8, !tbaa !22
  call void @llvm.lifetime.start.p0(i64 8, ptr %7) #13
  %8 = load ptr, ptr %5, align 8, !tbaa !22
  %9 = load ptr, ptr %4, align 8, !tbaa !22
  %10 = ptrtoint ptr %8 to i64
  %11 = ptrtoint ptr %9 to i64
  %12 = sub i64 %10, %11
  store i64 %12, ptr %7, align 8, !tbaa !21
  %13 = load i64, ptr %7, align 8, !tbaa !21
  %14 = icmp ne i64 %13, 0
  br i1 %14, label %15, label %20

15:                                               ; preds = %3
  %16 = load ptr, ptr %6, align 8, !tbaa !22
  %17 = load ptr, ptr %4, align 8, !tbaa !22
  %18 = load i64, ptr %7, align 8, !tbaa !21
  %19 = mul i64 1, %18
  call void @llvm.memmove.p0.p0.i64(ptr align 1 %16, ptr align 1 %17, i64 %19, i1 false)
  br label %20

20:                                               ; preds = %15, %3
  %21 = load ptr, ptr %6, align 8, !tbaa !22
  %22 = load i64, ptr %7, align 8, !tbaa !21
  %23 = getelementptr inbounds i8, ptr %21, i64 %22
  call void @llvm.lifetime.end.p0(i64 8, ptr %7) #13
  ret ptr %23
}

; Function Attrs: inlinehint mustprogress uwtable
define linkonce_odr noundef ptr @_ZSt14__copy_move_a2ILb0EPKhPhET1_T0_S4_S3_(ptr noundef %0, ptr noundef %1, ptr noundef %2) #3 comdat {
  %4 = alloca ptr, align 8
  %5 = alloca ptr, align 8
  %6 = alloca ptr, align 8
  store ptr %0, ptr %4, align 8, !tbaa !22
  store ptr %1, ptr %5, align 8, !tbaa !22
  store ptr %2, ptr %6, align 8, !tbaa !22
  %7 = load ptr, ptr %4, align 8, !tbaa !22
  %8 = load ptr, ptr %5, align 8, !tbaa !22
  %9 = load ptr, ptr %6, align 8, !tbaa !22
  %10 = call noundef ptr @_ZNSt11__copy_moveILb0ELb1ESt26random_access_iterator_tagE8__copy_mIhEEPT_PKS3_S6_S4_(ptr noundef %7, ptr noundef %8, ptr noundef %9)
  ret ptr %10
}

; Function Attrs: inlinehint mustprogress nounwind uwtable
define linkonce_odr noundef ptr @_ZSt12__niter_wrapIPhET_RKS1_S1_(ptr noundef nonnull align 8 dereferenceable(8) %0, ptr noundef %1) #7 comdat {
  %3 = alloca ptr, align 8
  %4 = alloca ptr, align 8
  store ptr %0, ptr %3, align 8, !tbaa !46
  store ptr %1, ptr %4, align 8, !tbaa !22
  %5 = load ptr, ptr %4, align 8, !tbaa !22
  ret ptr %5
}

; Function Attrs: inlinehint mustprogress uwtable
define linkonce_odr noundef ptr @_ZSt14__copy_move_a1ILb0EPKhPhET1_T0_S4_S3_(ptr noundef %0, ptr noundef %1, ptr noundef %2) #3 comdat {
  %4 = alloca ptr, align 8
  %5 = alloca ptr, align 8
  %6 = alloca ptr, align 8
  store ptr %0, ptr %4, align 8, !tbaa !22
  store ptr %1, ptr %5, align 8, !tbaa !22
  store ptr %2, ptr %6, align 8, !tbaa !22
  %7 = load ptr, ptr %4, align 8, !tbaa !22
  %8 = load ptr, ptr %5, align 8, !tbaa !22
  %9 = load ptr, ptr %6, align 8, !tbaa !22
  %10 = call noundef ptr @_ZSt14__copy_move_a2ILb0EPKhPhET1_T0_S4_S3_(ptr noundef %7, ptr noundef %8, ptr noundef %9)
  ret ptr %10
}

; Function Attrs: inlinehint mustprogress nounwind uwtable
define linkonce_odr noundef ptr @_ZSt12__niter_baseIPhET_S1_(ptr noundef %0) #7 comdat {
  %2 = alloca ptr, align 8
  store ptr %0, ptr %2, align 8, !tbaa !22
  %3 = load ptr, ptr %2, align 8, !tbaa !22
  ret ptr %3
}

; Function Attrs: inlinehint mustprogress nounwind uwtable
define linkonce_odr noundef ptr @_ZSt12__niter_baseIPKhET_S2_(ptr noundef %0) #7 comdat {
  %2 = alloca ptr, align 8
  store ptr %0, ptr %2, align 8, !tbaa !22
  %3 = load ptr, ptr %2, align 8, !tbaa !22
  ret ptr %3
}

; Function Attrs: inlinehint mustprogress uwtable
define linkonce_odr noundef ptr @_ZSt13__copy_move_aILb0EPKhPhET1_T0_S4_S3_(ptr noundef %0, ptr noundef %1, ptr noundef %2) #3 comdat {
  %4 = alloca ptr, align 8
  %5 = alloca ptr, align 8
  %6 = alloca ptr, align 8
  store ptr %0, ptr %4, align 8, !tbaa !22
  store ptr %1, ptr %5, align 8, !tbaa !22
  store ptr %2, ptr %6, align 8, !tbaa !22
  %7 = load ptr, ptr %4, align 8, !tbaa !22
  %8 = call noundef ptr @_ZSt12__niter_baseIPKhET_S2_(ptr noundef %7) #13
  %9 = load ptr, ptr %5, align 8, !tbaa !22
  %10 = call noundef ptr @_ZSt12__niter_baseIPKhET_S2_(ptr noundef %9) #13
  %11 = load ptr, ptr %6, align 8, !tbaa !22
  %12 = call noundef ptr @_ZSt12__niter_baseIPhET_S1_(ptr noundef %11) #13
  %13 = call noundef ptr @_ZSt14__copy_move_a1ILb0EPKhPhET1_T0_S4_S3_(ptr noundef %8, ptr noundef %10, ptr noundef %12)
  %14 = call noundef ptr @_ZSt12__niter_wrapIPhET_RKS1_S1_(ptr noundef nonnull align 8 dereferenceable(8) %6, ptr noundef %13)
  ret ptr %14
}

; Function Attrs: inlinehint mustprogress nounwind uwtable
define linkonce_odr noundef ptr @_ZSt12__miter_baseIPKhET_S2_(ptr noundef %0) #7 comdat {
  %2 = alloca ptr, align 8
  store ptr %0, ptr %2, align 8, !tbaa !22
  %3 = load ptr, ptr %2, align 8, !tbaa !22
  ret ptr %3
}

; Function Attrs: mustprogress nounwind uwtable
define linkonce_odr noundef ptr @_ZNKSt6vectorIhSaIhEE11_M_data_ptrIhEEPT_S4_(ptr noundef nonnull align 8 dereferenceable(24) %0, ptr noundef %1) #1 comdat align 2 {
  %3 = alloca ptr, align 8
  %4 = alloca ptr, align 8
  store ptr %0, ptr %3, align 8, !tbaa !8
  store ptr %1, ptr %4, align 8, !tbaa !22
  %5 = load ptr, ptr %4, align 8, !tbaa !22
  ret ptr %5
}

; Function Attrs: inlinehint mustprogress uwtable
define linkonce_odr noundef ptr @_ZSt4copyIPKhPhET0_T_S4_S3_(ptr noundef %0, ptr noundef %1, ptr noundef %2) #3 comdat {
  %4 = alloca ptr, align 8
  %5 = alloca ptr, align 8
  %6 = alloca ptr, align 8
  store ptr %0, ptr %4, align 8, !tbaa !22
  store ptr %1, ptr %5, align 8, !tbaa !22
  store ptr %2, ptr %6, align 8, !tbaa !22
  %7 = load ptr, ptr %4, align 8, !tbaa !22
  %8 = call noundef ptr @_ZSt12__miter_baseIPKhET_S2_(ptr noundef %7)
  %9 = load ptr, ptr %5, align 8, !tbaa !22
  %10 = call noundef ptr @_ZSt12__miter_baseIPKhET_S2_(ptr noundef %9)
  %11 = load ptr, ptr %6, align 8, !tbaa !22
  %12 = call noundef ptr @_ZSt13__copy_move_aILb0EPKhPhET1_T0_S4_S3_(ptr noundef %8, ptr noundef %10, ptr noundef %11)
  ret ptr %12
}

; Function Attrs: mustprogress nounwind uwtable
define linkonce_odr noundef ptr @_ZNSt6vectorIhSaIhEE4dataEv(ptr noundef nonnull align 8 dereferenceable(24) %0) #1 comdat align 2 {
  %2 = alloca ptr, align 8
  store ptr %0, ptr %2, align 8, !tbaa !8
  %3 = load ptr, ptr %2, align 8
  %4 = getelementptr inbounds nuw %"struct.std::_Vector_base", ptr %3, i32 0, i32 0
  %5 = getelementptr inbounds nuw %"struct.std::_Vector_base<unsigned char, std::allocator<unsigned char>>::_Vector_impl_data", ptr %4, i32 0, i32 0
  %6 = load ptr, ptr %5, align 8, !tbaa !16
  %7 = call noundef ptr @_ZNKSt6vectorIhSaIhEE11_M_data_ptrIhEEPT_S4_(ptr noundef nonnull align 8 dereferenceable(24) %3, ptr noundef %6) #13
  ret ptr %7
}

; Function Attrs: mustprogress nounwind uwtable
define linkonce_odr noundef i64 @_ZNKSt6vectorIhSaIhEE4sizeEv(ptr noundef nonnull align 8 dereferenceable(24) %0) #1 comdat align 2 {
  %2 = alloca ptr, align 8
  store ptr %0, ptr %2, align 8, !tbaa !8
  %3 = load ptr, ptr %2, align 8
  %4 = getelementptr inbounds nuw %"struct.std::_Vector_base", ptr %3, i32 0, i32 0
  %5 = getelementptr inbounds nuw %"struct.std::_Vector_base<unsigned char, std::allocator<unsigned char>>::_Vector_impl_data", ptr %4, i32 0, i32 1
  %6 = load ptr, ptr %5, align 8, !tbaa !19
  %7 = getelementptr inbounds nuw %"struct.std::_Vector_base", ptr %3, i32 0, i32 0
  %8 = getelementptr inbounds nuw %"struct.std::_Vector_base<unsigned char, std::allocator<unsigned char>>::_Vector_impl_data", ptr %7, i32 0, i32 0
  %9 = load ptr, ptr %8, align 8, !tbaa !16
  %10 = ptrtoint ptr %6 to i64
  %11 = ptrtoint ptr %9 to i64
  %12 = sub i64 %10, %11
  ret i64 %12
}

; Function Attrs: mustprogress uwtable
define noundef zeroext i1 @_ZN5draco10DataBuffer6UpdateEPKvll(ptr noundef nonnull align 8 dereferenceable(40) %0, ptr noundef %1, i64 noundef %2, i64 noundef %3) #0 align 2 {
  %5 = alloca i1, align 1
  %6 = alloca ptr, align 8
  %7 = alloca ptr, align 8
  %8 = alloca i64, align 8
  %9 = alloca i64, align 8
  %10 = alloca ptr, align 8
  store ptr %0, ptr %6, align 8, !tbaa !3
  store ptr %1, ptr %7, align 8, !tbaa !20
  store i64 %2, ptr %8, align 8, !tbaa !21
  store i64 %3, ptr %9, align 8, !tbaa !21
  %11 = load ptr, ptr %6, align 8
  %12 = load ptr, ptr %7, align 8, !tbaa !20
  %13 = icmp eq ptr %12, null
  br i1 %13, label %14, label %25

14:                                               ; preds = %4
  %15 = load i64, ptr %8, align 8, !tbaa !21
  %16 = load i64, ptr %9, align 8, !tbaa !21
  %17 = add nsw i64 %15, %16
  %18 = icmp slt i64 %17, 0
  br i1 %18, label %19, label %20

19:                                               ; preds = %14
  store i1 false, ptr %5, align 1
  br label %57

20:                                               ; preds = %14
  %21 = getelementptr inbounds nuw %"class.draco::DataBuffer", ptr %11, i32 0, i32 0
  %22 = load i64, ptr %8, align 8, !tbaa !21
  %23 = load i64, ptr %9, align 8, !tbaa !21
  %24 = add nsw i64 %22, %23
  call void @_ZNSt6vectorIhSaIhEE6resizeEm(ptr noundef nonnull align 8 dereferenceable(24) %21, i64 noundef %24)
  br label %52

25:                                               ; preds = %4
  %26 = load i64, ptr %8, align 8, !tbaa !21
  %27 = icmp slt i64 %26, 0
  br i1 %27, label %28, label %29

28:                                               ; preds = %25
  store i1 false, ptr %5, align 1
  br label %57

29:                                               ; preds = %25
  %30 = load i64, ptr %8, align 8, !tbaa !21
  %31 = load i64, ptr %9, align 8, !tbaa !21
  %32 = add nsw i64 %30, %31
  %33 = getelementptr inbounds nuw %"class.draco::DataBuffer", ptr %11, i32 0, i32 0
  %34 = call noundef i64 @_ZNKSt6vectorIhSaIhEE4sizeEv(ptr noundef nonnull align 8 dereferenceable(24) %33) #13
  %35 = icmp sgt i64 %32, %34
  br i1 %35, label %36, label %41

36:                                               ; preds = %29
  %37 = getelementptr inbounds nuw %"class.draco::DataBuffer", ptr %11, i32 0, i32 0
  %38 = load i64, ptr %8, align 8, !tbaa !21
  %39 = load i64, ptr %9, align 8, !tbaa !21
  %40 = add nsw i64 %38, %39
  call void @_ZNSt6vectorIhSaIhEE6resizeEm(ptr noundef nonnull align 8 dereferenceable(24) %37, i64 noundef %40)
  br label %41

41:                                               ; preds = %36, %29
  call void @llvm.lifetime.start.p0(i64 8, ptr %10) #13
  %42 = load ptr, ptr %7, align 8, !tbaa !20
  store ptr %42, ptr %10, align 8, !tbaa !22
  %43 = load ptr, ptr %10, align 8, !tbaa !22
  %44 = load ptr, ptr %10, align 8, !tbaa !22
  %45 = load i64, ptr %8, align 8, !tbaa !21
  %46 = getelementptr inbounds i8, ptr %44, i64 %45
  %47 = getelementptr inbounds nuw %"class.draco::DataBuffer", ptr %11, i32 0, i32 0
  %48 = call noundef ptr @_ZNSt6vectorIhSaIhEE4dataEv(ptr noundef nonnull align 8 dereferenceable(24) %47) #13
  %49 = load i64, ptr %9, align 8, !tbaa !21
  %50 = getelementptr inbounds i8, ptr %48, i64 %49
  %51 = call noundef ptr @_ZSt4copyIPKhPhET0_T_S4_S3_(ptr noundef %43, ptr noundef %46, ptr noundef %50)
  call void @llvm.lifetime.end.p0(i64 8, ptr %10) #13
  br label %52

52:                                               ; preds = %41, %20
  %53 = getelementptr inbounds nuw %"class.draco::DataBuffer", ptr %11, i32 0, i32 1
  %54 = getelementptr inbounds nuw %"struct.draco::DataBufferDescriptor", ptr %53, i32 0, i32 1
  %55 = load i64, ptr %54, align 8, !tbaa !23
  %56 = add nsw i64 %55, 1
  store i64 %56, ptr %54, align 8, !tbaa !23
  store i1 true, ptr %5, align 1
  br label %57

57:                                               ; preds = %52, %28, %19
  %58 = load i1, ptr %5, align 1
  ret i1 %58
}