; Function Attrs: mustprogress uwtable
define noundef zeroext i1 @_ZN5draco10DataBuffer6UpdateEPKvll(ptr noundef nonnull align 8 dereferenceable(40) %0, ptr noundef readonly captures(address_is_null) %1, i64 noundef %2, i64 noundef %3) local_unnamed_addr #1 align 2 {
  %5 = icmp eq ptr %1, null
  br i1 %5, label %6, label %10

6:                                                ; preds = %4
  %7 = add nsw i64 %3, %2
  %8 = icmp slt i64 %7, 0
  br i1 %8, label %29, label %9

9:                                                ; preds = %6
  tail call void @_ZNSt6vectorIhSaIhEE6resizeEm(ptr noundef nonnull align 8 dereferenceable(24) %0, i64 noundef %7)
  br label %_ZSt4copyIPKhPhET0_T_S4_S3_.exit

10:                                               ; preds = %4
  %11 = icmp slt i64 %2, 0
  br i1 %11, label %29, label %12

12:                                               ; preds = %10
  %13 = add nsw i64 %3, %2
  %14 = getelementptr inbounds nuw i8, ptr %0, i64 8
  %15 = load ptr, ptr %14, align 8, !tbaa !3
  %16 = load ptr, ptr %0, align 8, !tbaa !9
  %17 = ptrtoint ptr %15 to i64
  %18 = ptrtoint ptr %16 to i64
  %19 = sub i64 %17, %18
  %20 = icmp sgt i64 %13, %19
  br i1 %20, label %21, label %22

21:                                               ; preds = %12
  tail call void @_ZNSt6vectorIhSaIhEE6resizeEm(ptr noundef nonnull align 8 dereferenceable(24) %0, i64 noundef %13)
  br label %22

22:                                               ; preds = %21, %12
  %.not.i.i.i.i.i = icmp samesign eq i64 %2, 0
  br i1 %.not.i.i.i.i.i, label %_ZSt4copyIPKhPhET0_T_S4_S3_.exit, label %23

23:                                               ; preds = %22
  %24 = load ptr, ptr %0, align 8, !tbaa !9
  %25 = getelementptr inbounds i8, ptr %24, i64 %3
  tail call void @llvm.memmove.p0.p0.i64(ptr align 1 %25, ptr nonnull align 1 %1, i64 %2, i1 false)
  br label %_ZSt4copyIPKhPhET0_T_S4_S3_.exit

_ZSt4copyIPKhPhET0_T_S4_S3_.exit:                 ; preds = %23, %22, %9
  %26 = getelementptr inbounds nuw i8, ptr %0, i64 32
  %27 = load i64, ptr %26, align 8, !tbaa !10
  %28 = add nsw i64 %27, 1
  store i64 %28, ptr %26, align 8, !tbaa !10
  br label %29

29:                                               ; preds = %10, %6, %_ZSt4copyIPKhPhET0_T_S4_S3_.exit
  %.0 = phi i1 [ true, %_ZSt4copyIPKhPhET0_T_S4_S3_.exit ], [ false, %6 ], [ false, %10 ]
  ret i1 %.0
}